(dp0
S'jingle_cost'
p1
F314.9
sS'song'
p2
I10
sS'jingle_gain'
p3
F0.1
sS'video_cost'
p4
F2070.1
sS'album_gain'
p5
I10
sS'album_cost'
p6
F5901.5
sS'video'
p7
I7
sS'album'
p8
I5
sS'lyrics'
p9
I1
sS'song_gain'
p10
F0.5
sS'fans'
p11
F1098.8999999999967
sS'video_gain'
p12
I4
sS'song_cost'
p13
F2101.0
sS'jingle'
p14
I10
s.