(dp0
S'jingle_cost'
p1
F3597.4
sS'jingle_gain'
p2
F0.1
sS'video_cost'
p3
F12863.2
sS'album_gain'
p4
I10
sS'video'
p5
I10
sS'gig_gain'
p6
I40
sS'album'
p7
I8
sS'lyrics'
p8
I1
sS'gig_cost'
p9
F12250.4
sS'gig'
p10
I2
sS'fans'
p11
F6609.100000000042
sS'song_cost'
p12
F9959.9
sS'jingle'
p13
I13
sS'song'
p14
I12
sS'album_cost'
p15
F24435.7
sS'song_gain'
p16
F0.5
sS'video_gain'
p17
I4
s.