(dp0
S'jingle_cost'
p1
F171.3
sS'song'
p2
I3
sS'jingle_gain'
p3
F0.1
sS'video_cost'
p4
I500
sS'album_gain'
p5
I10
sS'album_cost'
p6
I3000
sS'video'
p7
I0
sS'album'
p8
I0
sS'lyrics'
p9
I1
sS'song_gain'
p10
F0.5
sS'fans'
p11
F1089.3999999999962
sS'video_gain'
p12
I4
sS'song_cost'
p13
F122.5
sS'jingle'
p14
I9
s.