(dp0
S'jingle_cost'
p1
F662.8
sS'song'
p2
I10
sS'jingle_gain'
p3
F0.1
sS'video_cost'
p4
F12863.2
sS'album_gain'
p5
I10
sS'album_cost'
p6
F24435.7
sS'video'
p7
I10
sS'gig_gain'
p8
I40
sS'album'
p9
I8
sS'lyrics'
p10
I1
sS'gig_cost'
p11
F10700.0
sS'song_gain'
p12
F0.5
sS'gig'
p13
I1
sS'fans'
p14
F3391.1000000000245
sS'video_gain'
p15
I4
sS'song_cost'
p16
F2101.0
sS'jingle'
p17
I11
s.